; Function Attrs: nounwind uwtable
define ptr @l_Array_foldlMUnsafe_fold___at___private_Lean_Meta_Tactic_Grind_Arith_Cutsat_LeCnstr_0__Lean_Meta_Grind_Arith_Cutsat_refineWithDiseq_refineWithDiseqStep_x3f___spec__4(ptr noundef %0, ptr noundef readonly captures(none) %1, i64 noundef %2, i64 noundef %3, ptr noundef %4) local_unnamed_addr #0 {
  %.not28 = icmp eq i64 %2, %3
  br i1 %.not28, label %._crit_edge, label %.lr.ph

.lr.ph:                                           ; preds = %5
  %6 = getelementptr inbounds nuw i8, ptr %1, i64 24
  br label %7

7:                                                ; preds = %.lr.ph, %27
  %.01630 = phi i64 [ %2, %.lr.ph ], [ %29, %27 ]
  %.01829 = phi ptr [ %4, %.lr.ph ], [ %28, %27 ]
  %8 = getelementptr inbounds nuw [0 x ptr], ptr %6, i64 0, i64 %.01630
  %9 = load ptr, ptr %8, align 8, !tbaa !4
  %10 = ptrtoint ptr %9 to i64
  %11 = and i64 %10, 1
  %.not.i20 = icmp eq i64 %11, 0
  br i1 %.not.i20, label %12, label %lean_array_uget.exit

12:                                               ; preds = %7
  %.val.i.i = load i32, ptr %9, align 4, !tbaa !8
  %13 = icmp sgt i32 %.val.i.i, 0
  br i1 %13, label %14, label %16, !prof !11

14:                                               ; preds = %12
  %15 = add nuw i32 %.val.i.i, 1
  store i32 %15, ptr %9, align 4, !tbaa !8
  br label %19

16:                                               ; preds = %12
  %.not.i.i = icmp eq i32 %.val.i.i, 0
  br i1 %.not.i.i, label %19, label %17

17:                                               ; preds = %16
  tail call void @lean_inc_ref_cold(ptr noundef nonnull %9) #4
  br label %19

lean_array_uget.exit:                             ; preds = %7
  %18 = tail call ptr @l___private_Lean_Data_PersistentArray_0__Lean_PersistentArray_foldlMAux___at___private_Lean_Meta_Tactic_Grind_Arith_Cutsat_LeCnstr_0__Lean_Meta_Grind_Arith_Cutsat_refineWithDiseq_refineWithDiseqStep_x3f___spec__3(ptr noundef %0, ptr noundef %9, ptr noundef %.01829)
  br label %27

19:                                               ; preds = %14, %16, %17
  %20 = tail call ptr @l___private_Lean_Data_PersistentArray_0__Lean_PersistentArray_foldlMAux___at___private_Lean_Meta_Tactic_Grind_Arith_Cutsat_LeCnstr_0__Lean_Meta_Grind_Arith_Cutsat_refineWithDiseq_refineWithDiseqStep_x3f___spec__3(ptr noundef %0, ptr noundef nonnull %9, ptr noundef %.01829)
  %21 = load i32, ptr %9, align 4, !tbaa !8
  %22 = icmp sgt i32 %21, 1
  br i1 %22, label %23, label %25, !prof !11

23:                                               ; preds = %19
  %24 = add nsw i32 %21, -1
  store i32 %24, ptr %9, align 4, !tbaa !8
  br label %27

25:                                               ; preds = %19
  %.not.i = icmp eq i32 %21, 0
  br i1 %.not.i, label %27, label %26

26:                                               ; preds = %25
  tail call void @lean_dec_ref_cold(ptr noundef nonnull %9) #4
  br label %27

27:                                               ; preds = %lean_array_uget.exit, %23, %25, %26
  %28 = phi ptr [ %18, %lean_array_uget.exit ], [ %20, %23 ], [ %20, %25 ], [ %20, %26 ]
  %29 = add i64 %.01630, 1
  %.not = icmp eq i64 %29, %3
  br i1 %.not, label %._crit_edge, label %7

._crit_edge:                                      ; preds = %27, %5
  %.018.lcssa = phi ptr [ %4, %5 ], [ %28, %27 ]
  ret ptr %.018.lcssa
}